Certificate:
    Data:
        Version: 3 (0x2)
        Serial Number:
            2a:af:c9:07:7c:21:96:97:83:a5:ea:a0:6c:51:d5:43:d9:2f:70:f3
        Signature Algorithm: ecdsa-with-SHA256
        Issuer: C = US, ST = California, L = Stanford, O = Starling Lab, emailAddress = "certificates+noreply@starlinglab.org", CN = Starling Lab Root CA
        Validity
            Not Before: Nov 14 19:19:05 2022 GMT
            Not After : Nov  9 19:19:05 2042 GMT
        Subject: C = US, ST = California, L = Stanford, O = Starling Lab, emailAddress = "certificates+noreply@starlinglab.org", CN = Starling Lab Root CA
        Subject Public Key Info:
            Public Key Algorithm: id-ecPublicKey
                Public-Key: (256 bit)
                pub:
                    04:24:2d:65:7f:cd:97:1f:2e:06:e5:19:1c:a2:85:
                    8c:2e:80:61:75:6b:2e:b5:7d:93:6e:97:dd:c8:8a:
                    3f:69:e7:bd:48:64:99:db:db:bd:66:a2:5a:ee:d9:
                    ca:26:94:ae:a4:30:d0:f6:a6:96:7c:13:7d:cc:6b:
                    dc:1a:4d:b1:d6
                ASN1 OID: prime256v1
                NIST CURVE: P-256
        X509v3 extensions:
            X509v3 Subject Key Identifier:
                A0:35:DF:63:14:61:E5:FB:1C:6F:AC:B4:4A:38:9D:99:F1:09:48:CE
            X509v3 Authority Key Identifier:
                keyid:A0:35:DF:63:14:61:E5:FB:1C:6F:AC:B4:4A:38:9D:99:F1:09:48:CE

            X509v3 Basic Constraints: critical
                CA:TRUE
            X509v3 Key Usage: critical
                Digital Signature, Certificate Sign, CRL Sign
            Authority Information Access:
                CA Issuers - URI:ipns://certs.starlinglab.org/trust.cert
                CA Issuers - URI:https://certs.starlinglab.org/trust.cert

            X509v3 CRL Distribution Points:

                Full Name:
                  URI:ipns://ca.starlinglab.org/revoke.crl

                Full Name:
                  URI:https://ca.starlinglab.org/revoke.crl

    Signature Algorithm: ecdsa-with-SHA256
         30:46:02:21:00:f8:18:7b:8d:1f:34:58:dd:1b:a8:f9:fa:90:
         a8:74:ed:58:d9:60:32:b6:6f:9a:e9:64:6b:56:81:5a:a1:65:
         b5:02:21:00:95:b4:a9:93:bb:57:55:54:03:64:ed:a8:8c:d4:
         b9:ac:d3:e0:d6:05:8d:f3:48:ff:c5:99:c7:da:bb:f0:40:ee
-----BEGIN CERTIFICATE-----
MIIDizCCAzCgAwIBAgIUKq/JB3whlpeDpeqgbFHVQ9kvcPMwCgYIKoZIzj0EAwIw
gaAxCzAJBgNVBAYTAlVTMRMwEQYDVQQIDApDYWxpZm9ybmlhMREwDwYDVQQHDAhT
dGFuZm9yZDEVMBMGA1UECgwMU3RhcmxpbmcgTGFiMTMwMQYJKoZIhvcNAQkBFiRj
ZXJ0aWZpY2F0ZXMrbm9yZXBseUBzdGFybGluZ2xhYi5vcmcxHTAbBgNVBAMMFFN0
YXJsaW5nIExhYiBSb290IENBMB4XDTIyMTExNDE5MTkwNVoXDTQyMTEwOTE5MTkw
NVowgaAxCzAJBgNVBAYTAlVTMRMwEQYDVQQIDApDYWxpZm9ybmlhMREwDwYDVQQH
DAhTdGFuZm9yZDEVMBMGA1UECgwMU3RhcmxpbmcgTGFiMTMwMQYJKoZIhvcNAQkB
FiRjZXJ0aWZpY2F0ZXMrbm9yZXBseUBzdGFybGluZ2xhYi5vcmcxHTAbBgNVBAMM
FFN0YXJsaW5nIExhYiBSb290IENBMFkwEwYHKoZIzj0CAQYIKoZIzj0DAQcDQgAE
JC1lf82XHy4G5RkcooWMLoBhdWsutX2TbpfdyIo/aee9SGSZ29u9ZqJa7tnKJpSu
pDDQ9qaWfBN9zGvcGk2x1qOCAUQwggFAMB0GA1UdDgQWBBSgNd9jFGHl+xxvrLRK
OJ2Z8QlIzjAfBgNVHSMEGDAWgBSgNd9jFGHl+xxvrLRKOJ2Z8QlIzjAPBgNVHRMB
Af8EBTADAQH/MA4GA1UdDwEB/wQEAwIBhjB5BggrBgEFBQcBAQRtMGswMwYIKwYB
BQUHMAKGJ2lwbnM6Ly9jZXJ0cy5zdGFybGluZ2xhYi5vcmcvdHJ1c3QuY2VydDA0
BggrBgEFBQcwAoYoaHR0cHM6Ly9jZXJ0cy5zdGFybGluZ2xhYi5vcmcvdHJ1c3Qu
Y2VydDBiBgNVHR8EWzBZMCqgKKAmhiRpcG5zOi8vY2Euc3RhcmxpbmdsYWIub3Jn
L3Jldm9rZS5jcmwwK6ApoCeGJWh0dHBzOi8vY2Euc3RhcmxpbmdsYWIub3JnL3Jl
dm9rZS5jcmwwCgYIKoZIzj0EAwIDSQAwRgIhAPgYe40fNFjdG6j5+pCodO1Y2WAy
tm+a6WRrVoFaoWW1AiEAlbSpk7tXVVQDZO2ojNS5rNPg1gWN80j/xZnH2rvwQO4=
-----END CERTIFICATE-----
