Certificate:
    Data:
        Version: 3 (0x2)
        Serial Number:
            3e:fa:ee:b0:f6:00:ad:d1:cf:66:0b:5c:c9:e2:20:12:ad:b2:2d:41
        Signature Algorithm: ecdsa-with-SHA256
        Issuer: C = US, ST = New York, L = New York, O = Rolling Stone Editorial Team, emailAddress = letters@rollingstone.com, CN = Rolling Stone Editorial Team Root CA
        Validity
            Not Before: Dec 13 13:51:11 2022 GMT
            Not After : Dec  8 13:51:11 2042 GMT
        Subject: C = US, ST = New York, L = New York, O = Rolling Stone Editorial Team, emailAddress = letters@rollingstone.com, CN = Rolling Stone Editorial Team Root CA
        Subject Public Key Info:
            Public Key Algorithm: id-ecPublicKey
                Public-Key: (256 bit)
                pub:
                    04:2c:82:e3:25:40:6b:05:a1:e4:04:ac:60:b9:30:
                    94:12:26:ed:42:d6:37:8c:df:c9:6a:13:98:b2:3f:
                    26:d9:f1:fa:96:60:7a:87:52:62:a4:d1:6f:fb:2a:
                    5b:6e:2c:63:ee:39:a2:70:73:40:45:cc:e8:aa:4f:
                    c7:40:12:9a:d6
                ASN1 OID: prime256v1
                NIST CURVE: P-256
        X509v3 extensions:
            X509v3 Subject Key Identifier:
                37:64:EE:B7:38:43:9B:95:49:EA:76:1B:B3:2F:73:A0:A6:EF:FA:4A
            X509v3 Authority Key Identifier:
                keyid:37:64:EE:B7:38:43:9B:95:49:EA:76:1B:B3:2F:73:A0:A6:EF:FA:4A

            X509v3 Basic Constraints: critical
                CA:TRUE
            X509v3 Key Usage: critical
                Digital Signature, Certificate Sign, CRL Sign
    Signature Algorithm: ecdsa-with-SHA256
         30:45:02:20:2a:94:f6:ca:53:1b:dc:ef:83:7f:3b:ad:8c:67:
         b9:40:35:1a:f9:b1:42:e3:47:6e:25:2e:e4:b1:e4:c6:8e:80:
         02:21:00:e2:5f:fc:4f:34:3a:3f:a1:c7:c8:e6:63:8f:a0:81:
         0c:46:45:7f:8c:90:27:6c:76:4c:92:87:86:d5:32:d4:41
-----BEGIN CERTIFICATE-----
MIICyzCCAnGgAwIBAgIUPvrusPYArdHPZgtcyeIgEq2yLUEwCgYIKoZIzj0EAwIw
gbIxCzAJBgNVBAYTAlVTMREwDwYDVQQIDAhOZXcgWW9yazERMA8GA1UEBwwITmV3
IFlvcmsxJTAjBgNVBAoMHFJvbGxpbmcgU3RvbmUgRWRpdG9yaWFsIFRlYW0xJzAl
BgkqhkiG9w0BCQEWGGxldHRlcnNAcm9sbGluZ3N0b25lLmNvbTEtMCsGA1UEAwwk
Um9sbGluZyBTdG9uZSBFZGl0b3JpYWwgVGVhbSBSb290IENBMB4XDTIyMTIxMzEz
NTExMVoXDTQyMTIwODEzNTExMVowgbIxCzAJBgNVBAYTAlVTMREwDwYDVQQIDAhO
ZXcgWW9yazERMA8GA1UEBwwITmV3IFlvcmsxJTAjBgNVBAoMHFJvbGxpbmcgU3Rv
bmUgRWRpdG9yaWFsIFRlYW0xJzAlBgkqhkiG9w0BCQEWGGxldHRlcnNAcm9sbGlu
Z3N0b25lLmNvbTEtMCsGA1UEAwwkUm9sbGluZyBTdG9uZSBFZGl0b3JpYWwgVGVh
bSBSb290IENBMFkwEwYHKoZIzj0CAQYIKoZIzj0DAQcDQgAELILjJUBrBaHkBKxg
uTCUEibtQtY3jN/JahOYsj8m2fH6lmB6h1JipNFv+ypbbixj7jmicHNARczoqk/H
QBKa1qNjMGEwHQYDVR0OBBYEFDdk7rc4Q5uVSep2G7Mvc6Cm7/pKMB8GA1UdIwQY
MBaAFDdk7rc4Q5uVSep2G7Mvc6Cm7/pKMA8GA1UdEwEB/wQFMAMBAf8wDgYDVR0P
AQH/BAQDAgGGMAoGCCqGSM49BAMCA0gAMEUCICqU9spTG9zvg387rYxnuUA1Gvmx
QuNHbiUu5LHkxo6AAiEA4l/8TzQ6P6HHyOZjj6CBDEZFf4yQJ2x2TJKHhtUy1EE=
-----END CERTIFICATE-----
