Certificate:
    Data:
        Version: 3 (0x2)
        Serial Number: 4097 (0x1001)
        Signature Algorithm: ecdsa-with-SHA256
        Issuer: C = US, ST = California, L = Stanford, O = Starling Lab, CN = Starling Lab Intermediate CA, emailAddress = "certificates+noreply@starlinglab.org"
        Validity
            Not Before: Jan 17 14:51:40 2023 GMT
            Not After : Jul 16 14:51:40 2023 GMT
        Subject: C = PT, ST = Lisbon, L = Lisbon, O = Hala Systems, CN = Kharkiv Schools Investigation, emailAddress = "info+certs@halasystems.com"
        Subject Public Key Info:
            Public Key Algorithm: id-ecPublicKey
                Public-Key: (256 bit)
                pub:
                    04:cf:6f:59:60:01:d9:93:c9:89:e6:e6:d2:ca:58:
                    8f:de:d5:14:d2:1f:91:19:f8:6b:7e:5c:aa:cf:21:
                    df:bd:d1:48:e5:d0:84:61:c5:30:fb:63:34:29:65:
                    2e:ae:d1:d8:c9:bc:c8:b8:96:15:a3:83:fa:7b:20:
                    31:f6:0f:55:87
                ASN1 OID: prime256v1
                NIST CURVE: P-256
        X509v3 extensions:
            X509v3 Basic Constraints:
                CA:FALSE
            Netscape Cert Type:
                SSL Client, S/MIME
            Netscape Comment:
                OpenSSL Generated Client Certificate
            X509v3 Subject Key Identifier:
                C4:42:96:C4:5A:9F:7E:11:61:AE:74:F1:4C:2C:3F:7E:9D:31:EA:27
            X509v3 Authority Key Identifier:
                keyid:E5:29:6E:23:3C:B0:04:1A:6D:0E:4C:7A:62:0A:D2:5C:A1:A4:41:94

            X509v3 Key Usage:
                Digital Signature
            X509v3 Extended Key Usage:
                E-mail Protection
    Signature Algorithm: ecdsa-with-SHA256
         30:44:02:20:7a:d1:3d:ba:db:80:96:d3:b8:37:10:c0:c5:62:
         4f:41:e6:82:71:0d:02:9d:d8:30:78:50:7c:6f:eb:52:77:5f:
         02:20:5f:e4:eb:c9:ff:eb:fa:d6:61:5b:a5:26:4d:db:68:ba:
         c1:34:52:cf:45:20:9e:be:00:77:9b:81:8e:60:9d:ab
-----BEGIN CERTIFICATE-----
MIIC6zCCApKgAwIBAgICEAEwCgYIKoZIzj0EAwIwgagxCzAJBgNVBAYTAlVTMRMw
EQYDVQQIDApDYWxpZm9ybmlhMREwDwYDVQQHDAhTdGFuZm9yZDEVMBMGA1UECgwM
U3RhcmxpbmcgTGFiMSUwIwYDVQQDDBxTdGFybGluZyBMYWIgSW50ZXJtZWRpYXRl
IENBMTMwMQYJKoZIhvcNAQkBFiRjZXJ0aWZpY2F0ZXMrbm9yZXBseUBzdGFybGlu
Z2xhYi5vcmcwHhcNMjMwMTE3MTQ1MTQwWhcNMjMwNzE2MTQ1MTQwWjCBmTELMAkG
A1UEBhMCUFQxDzANBgNVBAgMBkxpc2JvbjEPMA0GA1UEBwwGTGlzYm9uMRUwEwYD
VQQKDAxIYWxhIFN5c3RlbXMxJjAkBgNVBAMMHUtoYXJraXYgU2Nob29scyBJbnZl
c3RpZ2F0aW9uMSkwJwYJKoZIhvcNAQkBFhppbmZvK2NlcnRzQGhhbGFzeXN0ZW1z
LmNvbTBZMBMGByqGSM49AgEGCCqGSM49AwEHA0IABM9vWWAB2ZPJiebm0spYj97V
FNIfkRn4a35cqs8h373RSOXQhGHFMPtjNCllLq7R2Mm8yLiWFaOD+nsgMfYPVYej
gbgwgbUwCQYDVR0TBAIwADARBglghkgBhvhCAQEEBAMCBaAwMwYJYIZIAYb4QgEN
BCYWJE9wZW5TU0wgR2VuZXJhdGVkIENsaWVudCBDZXJ0aWZpY2F0ZTAdBgNVHQ4E
FgQUxEKWxFqffhFhrnTxTCw/fp0x6icwHwYDVR0jBBgwFoAU5SluIzywBBptDkx6
YgrSXKGkQZQwCwYDVR0PBAQDAgeAMBMGA1UdJQQMMAoGCCsGAQUFBwMEMAoGCCqG
SM49BAMCA0cAMEQCIHrRPbrbgJbTuDcQwMViT0HmgnENAp3YMHhQfG/rUndfAiBf
5OvJ/+v61mFbpSZN22i6wTRSz0Ugnr4Ad5uBjmCdqw==
-----END CERTIFICATE-----
