Certificate:
    Data:
        Version: 3 (0x2)
        Serial Number: 4097 (0x1001)
        Signature Algorithm: ecdsa-with-SHA512
        Issuer: C = US, ST = California, L = Stanford, O = Starling Lab, emailAddress = "certificates+noreply@starlinglab.org", CN = Starling Lab Root CA
        Validity
            Not Before: Nov 14 19:26:03 2022 GMT
            Not After : Nov 13 19:26:03 2027 GMT
        Subject: C = US, ST = California, L = Stanford, O = Starling Lab, CN = Starling Lab Intermediate CA, emailAddress = "certificates+noreply@starlinglab.org"
        Subject Public Key Info:
            Public Key Algorithm: id-ecPublicKey
                Public-Key: (256 bit)
                pub:
                    04:03:6a:df:6f:8e:37:d1:c8:3a:b1:79:1a:23:d3:
                    b9:02:57:87:74:9d:b6:54:c2:50:7d:e3:5c:c2:72:
                    a0:75:4a:c3:ab:f6:f3:eb:ae:0f:e0:6a:55:bd:55:
                    ab:69:87:9b:2c:05:bc:68:2c:17:1d:99:76:ea:95:
                    e6:3e:6a:ca:3e
                ASN1 OID: prime256v1
                NIST CURVE: P-256
        X509v3 extensions:
            X509v3 Subject Key Identifier:
                E5:29:6E:23:3C:B0:04:1A:6D:0E:4C:7A:62:0A:D2:5C:A1:A4:41:94
            X509v3 Authority Key Identifier:
                keyid:A0:35:DF:63:14:61:E5:FB:1C:6F:AC:B4:4A:38:9D:99:F1:09:48:CE

            X509v3 Basic Constraints: critical
                CA:TRUE, pathlen:0
            X509v3 Key Usage: critical
                Digital Signature, Certificate Sign, CRL Sign
            Authority Information Access:
                CA Issuers - URI:ipns://certs.starlinglab.org/trust.cert
                CA Issuers - URI:https://certs.starlinglab.org/trust.cert

            X509v3 CRL Distribution Points:

                Full Name:
                  URI:ipns://ca.starlinglab.org/revoke-intermediate.crl

                Full Name:
                  URI:https://ca.starlinglab.org/revoke-intermediate.crl

    Signature Algorithm: ecdsa-with-SHA512
         30:44:02:20:14:31:0c:d9:bc:cd:67:33:ae:8a:b7:6c:57:72:
         af:35:0c:4d:17:c6:e8:39:00:b8:77:73:50:ab:57:da:f9:cb:
         02:20:22:62:90:55:39:ca:e9:7f:ea:e3:a6:93:de:54:51:30:
         9a:99:6f:9e:5f:fe:fb:0d:4a:d6:32:29:04:61:58:10
-----BEGIN CERTIFICATE-----
MIIDnDCCA0OgAwIBAgICEAEwCgYIKoZIzj0EAwQwgaAxCzAJBgNVBAYTAlVTMRMw
EQYDVQQIDApDYWxpZm9ybmlhMREwDwYDVQQHDAhTdGFuZm9yZDEVMBMGA1UECgwM
U3RhcmxpbmcgTGFiMTMwMQYJKoZIhvcNAQkBFiRjZXJ0aWZpY2F0ZXMrbm9yZXBs
eUBzdGFybGluZ2xhYi5vcmcxHTAbBgNVBAMMFFN0YXJsaW5nIExhYiBSb290IENB
MB4XDTIyMTExNDE5MjYwM1oXDTI3MTExMzE5MjYwM1owgagxCzAJBgNVBAYTAlVT
MRMwEQYDVQQIDApDYWxpZm9ybmlhMREwDwYDVQQHDAhTdGFuZm9yZDEVMBMGA1UE
CgwMU3RhcmxpbmcgTGFiMSUwIwYDVQQDDBxTdGFybGluZyBMYWIgSW50ZXJtZWRp
YXRlIENBMTMwMQYJKoZIhvcNAQkBFiRjZXJ0aWZpY2F0ZXMrbm9yZXBseUBzdGFy
bGluZ2xhYi5vcmcwWTATBgcqhkjOPQIBBggqhkjOPQMBBwNCAAQDat9vjjfRyDqx
eRoj07kCV4d0nbZUwlB941zCcqB1SsOr9vPrrg/galW9Vatph5ssBbxoLBcdmXbq
leY+aso+o4IBYTCCAV0wHQYDVR0OBBYEFOUpbiM8sAQabQ5MemIK0lyhpEGUMB8G
A1UdIwQYMBaAFKA132MUYeX7HG+stEo4nZnxCUjOMBIGA1UdEwEB/wQIMAYBAf8C
AQAwDgYDVR0PAQH/BAQDAgGGMHkGCCsGAQUFBwEBBG0wazAzBggrBgEFBQcwAoYn
aXBuczovL2NlcnRzLnN0YXJsaW5nbGFiLm9yZy90cnVzdC5jZXJ0MDQGCCsGAQUF
BzAChihodHRwczovL2NlcnRzLnN0YXJsaW5nbGFiLm9yZy90cnVzdC5jZXJ0MHwG
A1UdHwR1MHMwN6A1oDOGMWlwbnM6Ly9jYS5zdGFybGluZ2xhYi5vcmcvcmV2b2tl
LWludGVybWVkaWF0ZS5jcmwwOKA2oDSGMmh0dHBzOi8vY2Euc3RhcmxpbmdsYWIu
b3JnL3Jldm9rZS1pbnRlcm1lZGlhdGUuY3JsMAoGCCqGSM49BAMEA0cAMEQCIBQx
DNm8zWczroq3bFdyrzUMTRfG6DkAuHdzUKtX2vnLAiAiYpBVOcrpf+rjppPeVFEw
mplvnl/++w1K1jIpBGFYEA==
-----END CERTIFICATE-----
