Certificate:
    Data:
        Version: 3 (0x2)
        Serial Number: 4098 (0x1002)
        Signature Algorithm: ecdsa-with-SHA256
        Issuer: C=US, ST=California, L=Stanford, O=Starling Lab, CN=Starling Lab Intermediate CA/emailAddress=certificates+noreply@starlinglab.org
        Validity
            Not Before: Mar 14 01:57:03 2023 GMT
            Not After : Jan  1 12:00:00 2024 GMT
        Subject: C=US, ST=New York, L=New York, O=Reuters, CN=Reuters V2/emailAddress=domain.name@thomsonreuters.com
        Subject Public Key Info:
            Public Key Algorithm: id-ecPublicKey
                Public-Key: (256 bit)
                pub:
                    04:8d:fd:8a:e5:e5:7c:ca:2b:12:6f:52:1b:0a:41:
                    42:42:27:a2:ea:cd:1e:69:f9:45:3f:41:b2:4c:45:
                    ee:f9:66:4b:43:72:ec:fa:0a:97:63:5a:5d:d7:45:
                    a0:9f:4c:c0:55:78:dc:32:58:1e:5f:7e:b6:22:b6:
                    3a:76:48:1d:f1
                ASN1 OID: prime256v1
                NIST CURVE: P-256
        X509v3 extensions:
            X509v3 Basic Constraints:
                CA:FALSE
            Netscape Cert Type:
                SSL Client, S/MIME
            Netscape Comment:
                OpenSSL Generated Client Certificate
            X509v3 Subject Key Identifier:
                B8:F8:86:23:0A:BE:96:AC:5F:46:04:6B:1C:E8:97:28:1C:2F:AC:A4
            X509v3 Authority Key Identifier:
                keyid:E5:29:6E:23:3C:B0:04:1A:6D:0E:4C:7A:62:0A:D2:5C:A1:A4:41:94

            X509v3 Key Usage:
                Digital Signature
            X509v3 Extended Key Usage:
                E-mail Protection
    Signature Algorithm: ecdsa-with-SHA256
         30:45:02:20:5c:4c:cf:69:8d:03:27:91:ae:80:45:74:2c:2e:
         c2:fd:ad:cb:39:28:33:18:84:60:74:71:18:b9:67:d0:86:d4:
         02:21:00:e4:d2:0a:af:93:d9:8f:0b:67:15:22:7e:6f:91:da:
         25:ba:6f:53:1c:a6:33:8b:48:7b:e6:a3:9d:f0:86:62:9d
-----BEGIN CERTIFICATE-----
MIIC3DCCAoKgAwIBAgICEAIwCgYIKoZIzj0EAwIwgagxCzAJBgNVBAYTAlVTMRMw
EQYDVQQIDApDYWxpZm9ybmlhMREwDwYDVQQHDAhTdGFuZm9yZDEVMBMGA1UECgwM
U3RhcmxpbmcgTGFiMSUwIwYDVQQDDBxTdGFybGluZyBMYWIgSW50ZXJtZWRpYXRl
IENBMTMwMQYJKoZIhvcNAQkBFiRjZXJ0aWZpY2F0ZXMrbm9yZXBseUBzdGFybGlu
Z2xhYi5vcmcwHhcNMjMwMzE0MDE1NzAzWhcNMjQwMTAxMTIwMDAwWjCBiTELMAkG
A1UEBhMCVVMxETAPBgNVBAgMCE5ldyBZb3JrMREwDwYDVQQHDAhOZXcgWW9yazEQ
MA4GA1UECgwHUmV1dGVyczETMBEGA1UEAwwKUmV1dGVycyBWMjEtMCsGCSqGSIb3
DQEJARYeZG9tYWluLm5hbWVAdGhvbXNvbnJldXRlcnMuY29tMFkwEwYHKoZIzj0C
AQYIKoZIzj0DAQcDQgAEjf2K5eV8yisSb1IbCkFCQiei6s0eaflFP0GyTEXu+WZL
Q3Ls+gqXY1pd10Wgn0zAVXjcMlgeX362IrY6dkgd8aOBuDCBtTAJBgNVHRMEAjAA
MBEGCWCGSAGG+EIBAQQEAwIFoDAzBglghkgBhvhCAQ0EJhYkT3BlblNTTCBHZW5l
cmF0ZWQgQ2xpZW50IENlcnRpZmljYXRlMB0GA1UdDgQWBBS4+IYjCr6WrF9GBGsc
6JcoHC+spDAfBgNVHSMEGDAWgBTlKW4jPLAEGm0OTHpiCtJcoaRBlDALBgNVHQ8E
BAMCB4AwEwYDVR0lBAwwCgYIKwYBBQUHAwQwCgYIKoZIzj0EAwIDSAAwRQIgXEzP
aY0DJ5GugEV0LC7C/a3LOSgzGIRgdHEYuWfQhtQCIQDk0gqvk9mPC2cVIn5vkdol
um9THKYzi0h75qOd8IZinQ==
-----END CERTIFICATE-----
