Certificate:
    Data:
        Version: 3 (0x2)
        Serial Number: 4096 (0x1000)
        Signature Algorithm: ecdsa-with-SHA256
        Issuer: C = US, ST = New York, L = New York, O = Rolling Stone Editorial Team, emailAddress = letters@rollingstone.com, CN = Rolling Stone Editorial Team Root CA
        Validity
            Not Before: Dec 13 13:55:09 2022 GMT
            Not After : Jul  1 12:00:00 2023 GMT
        Subject: C = US, ST = California, L = Los Angeles, O = Starling Lab, CN = Starling Lab Bijeljina Investigation, emailAddress = "certificates+noreply@starlinglab.org"
        Subject Public Key Info:
            Public Key Algorithm: id-ecPublicKey
                Public-Key: (256 bit)
                pub:
                    04:6c:61:6f:0b:99:a2:90:47:23:1f:fe:4b:43:25:
                    d7:38:02:24:21:f4:76:b6:3c:d9:d2:24:d9:bf:93:
                    2d:73:fd:20:e4:ee:21:62:9b:4e:d9:37:92:e8:6f:
                    05:71:c1:c2:66:3b:9d:ff:4b:56:94:ac:fc:29:de:
                    2f:11:3a:20:36
                ASN1 OID: prime256v1
                NIST CURVE: P-256
        X509v3 extensions:
            X509v3 Basic Constraints:
                CA:FALSE
            Netscape Cert Type:
                SSL Client, S/MIME
            Netscape Comment:
                OpenSSL Generated Client Certificate
            X509v3 Subject Key Identifier:
                A8:44:B8:71:21:06:A7:6D:1A:E9:85:83:43:C7:E1:EE:C3:DF:D0:31
            X509v3 Authority Key Identifier:
                keyid:37:64:EE:B7:38:43:9B:95:49:EA:76:1B:B3:2F:73:A0:A6:EF:FA:4A

            X509v3 Key Usage:
                Digital Signature
            X509v3 Extended Key Usage:
                E-mail Protection
    Signature Algorithm: ecdsa-with-SHA256
         30:46:02:21:00:9e:61:3c:d4:be:75:cb:fd:40:f9:b5:7e:89:
         c8:4f:03:78:7b:4f:0d:0f:2e:b1:d5:c6:df:f4:8a:34:76:fe:
         01:02:21:00:d5:90:ad:8c:5d:06:1c:f0:36:44:94:5a:be:16:
         19:2a:78:32:9b:01:87:9f:b2:e6:4a:d2:9d:e9:1a:01:55:16
-----BEGIN CERTIFICATE-----
MIIDETCCAragAwIBAgICEAAwCgYIKoZIzj0EAwIwgbIxCzAJBgNVBAYTAlVTMREw
DwYDVQQIDAhOZXcgWW9yazERMA8GA1UEBwwITmV3IFlvcmsxJTAjBgNVBAoMHFJv
bGxpbmcgU3RvbmUgRWRpdG9yaWFsIFRlYW0xJzAlBgkqhkiG9w0BCQEWGGxldHRl
cnNAcm9sbGluZ3N0b25lLmNvbTEtMCsGA1UEAwwkUm9sbGluZyBTdG9uZSBFZGl0
b3JpYWwgVGVhbSBSb290IENBMB4XDTIyMTIxMzEzNTUwOVoXDTIzMDcwMTEyMDAw
MFowgbMxCzAJBgNVBAYTAlVTMRMwEQYDVQQIDApDYWxpZm9ybmlhMRQwEgYDVQQH
DAtMb3MgQW5nZWxlczEVMBMGA1UECgwMU3RhcmxpbmcgTGFiMS0wKwYDVQQDDCRT
dGFybGluZyBMYWIgQmlqZWxqaW5hIEludmVzdGlnYXRpb24xMzAxBgkqhkiG9w0B
CQEWJGNlcnRpZmljYXRlcytub3JlcGx5QHN0YXJsaW5nbGFiLm9yZzBZMBMGByqG
SM49AgEGCCqGSM49AwEHA0IABGxhbwuZopBHIx/+S0Ml1zgCJCH0drY82dIk2b+T
LXP9IOTuIWKbTtk3kuhvBXHBwmY7nf9LVpSs/CneLxE6IDajgbgwgbUwCQYDVR0T
BAIwADARBglghkgBhvhCAQEEBAMCBaAwMwYJYIZIAYb4QgENBCYWJE9wZW5TU0wg
R2VuZXJhdGVkIENsaWVudCBDZXJ0aWZpY2F0ZTAdBgNVHQ4EFgQUqES4cSEGp20a
6YWDQ8fh7sPf0DEwHwYDVR0jBBgwFoAUN2TutzhDm5VJ6nYbsy9zoKbv+kowCwYD
VR0PBAQDAgeAMBMGA1UdJQQMMAoGCCsGAQUFBwMEMAoGCCqGSM49BAMCA0kAMEYC
IQCeYTzUvnXL/UD5tX6JyE8DeHtPDQ8usdXG3/SKNHb+AQIhANWQrYxdBhzwNkSU
Wr4WGSp4MpsBh5+y5krSnekaAVUW
-----END CERTIFICATE-----
