Certificate:
    Data:
        Version: 3 (0x2)
        Serial Number: 4100 (0x1004)
        Signature Algorithm: ecdsa-with-SHA256
        Issuer: C = US, ST = California, L = Stanford, O = Starling Lab, CN = Starling Lab Intermediate CA, emailAddress = "certificates+noreply@starlinglab.org"
        Validity
            Not Before: Jun  8 20:57:37 2023 GMT
            Not After : Jun 17 20:57:37 2024 GMT
        Subject: C = PL, ST = Warsaw, L = Warsaw, O = Pixelrace, CN = Pixelrace, emailAddress = virtualproduction@pixelrace.com
        Subject Public Key Info:
            Public Key Algorithm: id-ecPublicKey
                Public-Key: (256 bit)
                pub:
                    04:e1:df:1e:05:55:d0:1e:cb:2f:fe:97:61:27:cc:
                    98:b5:9a:d3:46:01:24:a9:eb:c9:ee:d6:98:fc:e2:
                    a7:20:fa:ea:b9:14:91:47:30:f9:2c:76:09:c7:89:
                    19:46:a0:ab:bc:53:d8:e0:5a:ac:c8:33:62:87:77:
                    9f:68:6a:6b:f5
                ASN1 OID: prime256v1
                NIST CURVE: P-256
        X509v3 extensions:
            X509v3 Basic Constraints:
                CA:FALSE
            Netscape Cert Type:
                SSL Client, S/MIME
            Netscape Comment:
                OpenSSL Generated Client Certificate
            X509v3 Subject Key Identifier:
                EA:17:B3:4C:DD:2D:C9:3B:3B:46:02:6D:62:75:DD:6E:09:3A:6C:71
            X509v3 Authority Key Identifier:
                keyid:E5:29:6E:23:3C:B0:04:1A:6D:0E:4C:7A:62:0A:D2:5C:A1:A4:41:94

            X509v3 Key Usage:
                Digital Signature
            X509v3 Extended Key Usage:
                E-mail Protection
    Signature Algorithm: ecdsa-with-SHA256
         30:45:02:20:45:16:7c:0e:ab:6f:75:21:1a:e7:b4:bd:09:d8:
         6c:83:bc:2d:1c:b4:10:ff:c4:52:6c:99:61:09:da:ba:12:7a:
         02:21:00:a7:9a:0b:a4:d7:29:20:7d:aa:32:2c:bf:06:9b:eb:
         50:ad:d4:2a:58:02:95:37:b7:77:05:e6:d8:2c:cd:86:7d
-----BEGIN CERTIFICATE-----
MIIC2jCCAoCgAwIBAgICEAQwCgYIKoZIzj0EAwIwgagxCzAJBgNVBAYTAlVTMRMw
EQYDVQQIDApDYWxpZm9ybmlhMREwDwYDVQQHDAhTdGFuZm9yZDEVMBMGA1UECgwM
U3RhcmxpbmcgTGFiMSUwIwYDVQQDDBxTdGFybGluZyBMYWIgSW50ZXJtZWRpYXRl
IENBMTMwMQYJKoZIhvcNAQkBFiRjZXJ0aWZpY2F0ZXMrbm9yZXBseUBzdGFybGlu
Z2xhYi5vcmcwHhcNMjMwNjA4MjA1NzM3WhcNMjQwNjE3MjA1NzM3WjCBhzELMAkG
A1UEBhMCUEwxDzANBgNVBAgMBldhcnNhdzEPMA0GA1UEBwwGV2Fyc2F3MRIwEAYD
VQQKDAlQaXhlbHJhY2UxEjAQBgNVBAMMCVBpeGVscmFjZTEuMCwGCSqGSIb3DQEJ
ARYfdmlydHVhbHByb2R1Y3Rpb25AcGl4ZWxyYWNlLmNvbTBZMBMGByqGSM49AgEG
CCqGSM49AwEHA0IABOHfHgVV0B7LL/6XYSfMmLWa00YBJKnrye7WmPzipyD66rkU
kUcw+Sx2CceJGUagq7xT2OBarMgzYod3n2hqa/WjgbgwgbUwCQYDVR0TBAIwADAR
BglghkgBhvhCAQEEBAMCBaAwMwYJYIZIAYb4QgENBCYWJE9wZW5TU0wgR2VuZXJh
dGVkIENsaWVudCBDZXJ0aWZpY2F0ZTAdBgNVHQ4EFgQU6hezTN0tyTs7RgJtYnXd
bgk6bHEwHwYDVR0jBBgwFoAU5SluIzywBBptDkx6YgrSXKGkQZQwCwYDVR0PBAQD
AgeAMBMGA1UdJQQMMAoGCCsGAQUFBwMEMAoGCCqGSM49BAMCA0gAMEUCIEUWfA6r
b3UhGue0vQnYbIO8LRy0EP/EUmyZYQnauhJ6AiEAp5oLpNcpIH2qMiy/BpvrUK3U
KlgClTe3dwXm2CzNhn0=
-----END CERTIFICATE-----
