Certificate:
    Data:
        Version: 3 (0x2)
        Serial Number: 4099 (0x1003)
        Signature Algorithm: ecdsa-with-SHA256
        Issuer: C = US, ST = California, L = Stanford, O = Starling Lab, CN = Starling Lab Intermediate CA, emailAddress = "certificates+noreply@starlinglab.org"
        Validity
            Not Before: Jun  6 01:54:12 2023 GMT
            Not After : Jun  5 01:54:12 2024 GMT
        Subject: C = UA, ST = Kyiv, L = Kyiv, O = Aero3D, CN = Aero3D, emailAddress = info@aero3d.ua
        Subject Public Key Info:
            Public Key Algorithm: id-ecPublicKey
                Public-Key: (256 bit)
                pub:
                    04:70:e8:c2:cb:55:41:e7:b8:48:d0:2a:e6:32:b0:
                    3b:3e:07:01:bc:5b:a7:1a:bd:22:a9:09:2d:72:6f:
                    3d:4c:6d:62:7b:ba:70:57:e7:ca:83:98:39:f2:bd:
                    e4:3a:ea:98:0b:1f:66:57:32:f3:3d:09:28:36:cb:
                    b6:d5:e6:b5:69
                ASN1 OID: prime256v1
                NIST CURVE: P-256
        X509v3 extensions:
            X509v3 Basic Constraints:
                CA:FALSE
            Netscape Cert Type:
                SSL Client, S/MIME
            Netscape Comment:
                OpenSSL Generated Client Certificate
            X509v3 Subject Key Identifier:
                68:5B:0C:A2:A7:E7:57:9C:8F:6D:E4:8E:DF:DC:94:7C:0B:5F:6D:CF
            X509v3 Authority Key Identifier:
                keyid:E5:29:6E:23:3C:B0:04:1A:6D:0E:4C:7A:62:0A:D2:5C:A1:A4:41:94

            X509v3 Key Usage:
                Digital Signature
            X509v3 Extended Key Usage:
                E-mail Protection
    Signature Algorithm: ecdsa-with-SHA256
         30:44:02:20:14:6a:2a:20:8e:85:6c:8b:25:f1:f4:5b:d3:bd:
         0a:b0:6b:5b:2e:ce:8d:f3:ac:c0:46:90:8d:63:19:0f:1e:9d:
         02:20:51:b5:b7:0d:c5:a0:13:4b:53:f9:a0:2a:fa:4b:97:67:
         93:11:ec:db:b9:0a:4f:ac:df:2e:31:e7:02:31:f9:cd
-----BEGIN CERTIFICATE-----
MIICvTCCAmSgAwIBAgICEAMwCgYIKoZIzj0EAwIwgagxCzAJBgNVBAYTAlVTMRMw
EQYDVQQIDApDYWxpZm9ybmlhMREwDwYDVQQHDAhTdGFuZm9yZDEVMBMGA1UECgwM
U3RhcmxpbmcgTGFiMSUwIwYDVQQDDBxTdGFybGluZyBMYWIgSW50ZXJtZWRpYXRl
IENBMTMwMQYJKoZIhvcNAQkBFiRjZXJ0aWZpY2F0ZXMrbm9yZXBseUBzdGFybGlu
Z2xhYi5vcmcwHhcNMjMwNjA2MDE1NDEyWhcNMjQwNjA1MDE1NDEyWjBsMQswCQYD
VQQGEwJVQTENMAsGA1UECAwES3lpdjENMAsGA1UEBwwES3lpdjEPMA0GA1UECgwG
QWVybzNEMQ8wDQYDVQQDDAZBZXJvM0QxHTAbBgkqhkiG9w0BCQEWDmluZm9AYWVy
bzNkLnVhMFkwEwYHKoZIzj0CAQYIKoZIzj0DAQcDQgAEcOjCy1VB57hI0CrmMrA7
PgcBvFunGr0iqQktcm89TG1ie7pwV+fKg5g58r3kOuqYCx9mVzLzPQkoNsu21ea1
aaOBuDCBtTAJBgNVHRMEAjAAMBEGCWCGSAGG+EIBAQQEAwIFoDAzBglghkgBhvhC
AQ0EJhYkT3BlblNTTCBHZW5lcmF0ZWQgQ2xpZW50IENlcnRpZmljYXRlMB0GA1Ud
DgQWBBRoWwyip+dXnI9t5I7f3JR8C19tzzAfBgNVHSMEGDAWgBTlKW4jPLAEGm0O
THpiCtJcoaRBlDALBgNVHQ8EBAMCB4AwEwYDVR0lBAwwCgYIKwYBBQUHAwQwCgYI
KoZIzj0EAwIDRwAwRAIgFGoqII6FbIsl8fRb070KsGtbLs6N86zARpCNYxkPHp0C
IFG1tw3FoBNLU/mgKvpLl2eTEezbuQpPrN8uMecCMfnN
-----END CERTIFICATE-----
