Certificate:
    Data:
        Version: 3 (0x2)
        Serial Number: 4096 (0x1000)
        Signature Algorithm: ecdsa-with-SHA256
        Issuer: C=US, ST=California, L=Stanford, O=Starling Lab, CN=Starling Lab Intermediate CA/emailAddress=certificates+noreply@starlinglab.org
        Validity
            Not Before: Nov 21 17:15:18 2022 GMT
            Not After : Jul  1 12:00:00 2023 GMT
        Subject: C=US, ST=California, L=Los Angeles, O=Starling Lab, CN=Starling Lab Bijeljina Investigation/emailAddress=certificates+noreply@starlinglab.org
        Subject Public Key Info:
            Public Key Algorithm: id-ecPublicKey
                Public-Key: (256 bit)
                pub:
                    04:6c:61:6f:0b:99:a2:90:47:23:1f:fe:4b:43:25:
                    d7:38:02:24:21:f4:76:b6:3c:d9:d2:24:d9:bf:93:
                    2d:73:fd:20:e4:ee:21:62:9b:4e:d9:37:92:e8:6f:
                    05:71:c1:c2:66:3b:9d:ff:4b:56:94:ac:fc:29:de:
                    2f:11:3a:20:36
                ASN1 OID: prime256v1
                NIST CURVE: P-256
        X509v3 extensions:
            X509v3 Basic Constraints: 
                CA:FALSE
            Netscape Cert Type: 
                SSL Client, S/MIME
            Netscape Comment: 
                OpenSSL Generated Client Certificate
            X509v3 Subject Key Identifier: 
                A8:44:B8:71:21:06:A7:6D:1A:E9:85:83:43:C7:E1:EE:C3:DF:D0:31
            X509v3 Authority Key Identifier: 
                keyid:E5:29:6E:23:3C:B0:04:1A:6D:0E:4C:7A:62:0A:D2:5C:A1:A4:41:94

            X509v3 Key Usage: 
                Digital Signature
            X509v3 Extended Key Usage: 
                E-mail Protection
    Signature Algorithm: ecdsa-with-SHA256
         30:44:02:20:4f:14:b2:2a:4e:32:67:6c:ce:4a:d8:c9:66:15:
         95:23:91:85:ce:2b:96:d4:db:e5:4a:ca:33:5f:5f:01:97:65:
         02:20:03:61:93:89:8a:b0:6e:48:b1:15:83:b2:77:b8:a0:19:
         cc:79:dc:f7:45:97:3f:c0:e0:17:9c:9b:92:92:70:97
-----BEGIN CERTIFICATE-----
MIIDBTCCAqygAwIBAgICEAAwCgYIKoZIzj0EAwIwgagxCzAJBgNVBAYTAlVTMRMw
EQYDVQQIDApDYWxpZm9ybmlhMREwDwYDVQQHDAhTdGFuZm9yZDEVMBMGA1UECgwM
U3RhcmxpbmcgTGFiMSUwIwYDVQQDDBxTdGFybGluZyBMYWIgSW50ZXJtZWRpYXRl
IENBMTMwMQYJKoZIhvcNAQkBFiRjZXJ0aWZpY2F0ZXMrbm9yZXBseUBzdGFybGlu
Z2xhYi5vcmcwHhcNMjIxMTIxMTcxNTE4WhcNMjMwNzAxMTIwMDAwWjCBszELMAkG
A1UEBhMCVVMxEzARBgNVBAgMCkNhbGlmb3JuaWExFDASBgNVBAcMC0xvcyBBbmdl
bGVzMRUwEwYDVQQKDAxTdGFybGluZyBMYWIxLTArBgNVBAMMJFN0YXJsaW5nIExh
YiBCaWplbGppbmEgSW52ZXN0aWdhdGlvbjEzMDEGCSqGSIb3DQEJARYkY2VydGlm
aWNhdGVzK25vcmVwbHlAc3RhcmxpbmdsYWIub3JnMFkwEwYHKoZIzj0CAQYIKoZI
zj0DAQcDQgAEbGFvC5mikEcjH/5LQyXXOAIkIfR2tjzZ0iTZv5Mtc/0g5O4hYptO
2TeS6G8FccHCZjud/0tWlKz8Kd4vETogNqOBuDCBtTAJBgNVHRMEAjAAMBEGCWCG
SAGG+EIBAQQEAwIFoDAzBglghkgBhvhCAQ0EJhYkT3BlblNTTCBHZW5lcmF0ZWQg
Q2xpZW50IENlcnRpZmljYXRlMB0GA1UdDgQWBBSoRLhxIQanbRrphYNDx+Huw9/Q
MTAfBgNVHSMEGDAWgBTlKW4jPLAEGm0OTHpiCtJcoaRBlDALBgNVHQ8EBAMCB4Aw
EwYDVR0lBAwwCgYIKwYBBQUHAwQwCgYIKoZIzj0EAwIDRwAwRAIgTxSyKk4yZ2zO
StjJZhWVI5GFziuW1NvlSsozX18Bl2UCIANhk4mKsG5IsRWDsne4oBnMedz3RZc/
wOAXnJuSknCX
-----END CERTIFICATE-----
