Certificate:
    Data:
        Version: 3 (0x2)
        Serial Number: 4096 (0x1000)
        Signature Algorithm: ecdsa-with-SHA256
        Issuer: C=US, ST=California, L=Stanford, O=Starling Lab TEST/emailAddress=certificates+noreply@starlinglab.org, CN=Starling Lab TEST Intermediate
        Validity
            Not Before: Nov 21 17:12:48 2022 GMT
            Not After : Jul  1 12:00:00 2023 GMT
        Subject: C=US, ST=California, L=Los Angeles, O=Starling Lab TEST, CN=Starling Lab Bijeljina Investigation (Test)/emailAddress=certificates+noreply@starlinglab.org
        Subject Public Key Info:
            Public Key Algorithm: id-ecPublicKey
                Public-Key: (256 bit)
                pub:
                    04:ae:ea:78:b1:97:d7:8f:41:db:43:4c:ce:5f:ac:
                    04:13:52:9b:0a:56:5b:42:c2:0b:9e:ff:c6:b2:da:
                    9d:89:36:84:8a:90:0b:3d:38:d0:f2:0a:36:07:65:
                    47:d6:99:c0:e3:67:6e:6e:77:21:87:c0:7d:fa:42:
                    ac:d8:43:ba:6e
                ASN1 OID: prime256v1
                NIST CURVE: P-256
        X509v3 extensions:
            X509v3 Basic Constraints: 
                CA:FALSE
            Netscape Cert Type: 
                SSL Client, S/MIME
            Netscape Comment: 
                OpenSSL Generated Client Certificate
            X509v3 Subject Key Identifier: 
                85:33:90:D1:D3:37:DB:54:F1:BE:26:A3:26:99:C4:97:44:C2:E1:FB
            X509v3 Authority Key Identifier: 
                keyid:2D:C7:92:0A:71:7E:12:43:37:DE:F0:FD:F6:B2:B8:E2:9F:D4:E9:65

            X509v3 Key Usage: 
                Digital Signature
            X509v3 Extended Key Usage: 
                E-mail Protection
    Signature Algorithm: ecdsa-with-SHA256
         30:45:02:20:20:87:87:a6:33:61:23:55:5b:a9:27:ab:46:ed:
         b5:d5:34:5b:ec:64:32:d6:cb:f0:17:09:45:5d:b3:77:ab:21:
         02:21:00:ad:d5:84:de:e8:3a:8c:2a:8c:38:37:af:13:77:b3:
         6a:20:70:e2:1b:d5:fd:79:96:87:f8:b1:ec:33:36:ea:2d
-----BEGIN CERTIFICATE-----
MIIDGTCCAr+gAwIBAgICEAAwCgYIKoZIzj0EAwIwga8xCzAJBgNVBAYTAlVTMRMw
EQYDVQQIDApDYWxpZm9ybmlhMREwDwYDVQQHDAhTdGFuZm9yZDEaMBgGA1UECgwR
U3RhcmxpbmcgTGFiIFRFU1QxMzAxBgkqhkiG9w0BCQEWJGNlcnRpZmljYXRlcytu
b3JlcGx5QHN0YXJsaW5nbGFiLm9yZzEnMCUGA1UEAwweU3RhcmxpbmcgTGFiIFRF
U1QgSW50ZXJtZWRpYXRlMB4XDTIyMTEyMTE3MTI0OFoXDTIzMDcwMTEyMDAwMFow
gb8xCzAJBgNVBAYTAlVTMRMwEQYDVQQIDApDYWxpZm9ybmlhMRQwEgYDVQQHDAtM
b3MgQW5nZWxlczEaMBgGA1UECgwRU3RhcmxpbmcgTGFiIFRFU1QxNDAyBgNVBAMM
K1N0YXJsaW5nIExhYiBCaWplbGppbmEgSW52ZXN0aWdhdGlvbiAoVGVzdCkxMzAx
BgkqhkiG9w0BCQEWJGNlcnRpZmljYXRlcytub3JlcGx5QHN0YXJsaW5nbGFiLm9y
ZzBZMBMGByqGSM49AgEGCCqGSM49AwEHA0IABK7qeLGX149B20NMzl+sBBNSmwpW
W0LCC57/xrLanYk2hIqQCz040PIKNgdlR9aZwONnbm53IYfAffpCrNhDum6jgbgw
gbUwCQYDVR0TBAIwADARBglghkgBhvhCAQEEBAMCBaAwMwYJYIZIAYb4QgENBCYW
JE9wZW5TU0wgR2VuZXJhdGVkIENsaWVudCBDZXJ0aWZpY2F0ZTAdBgNVHQ4EFgQU
hTOQ0dM321TxviajJpnEl0TC4fswHwYDVR0jBBgwFoAULceSCnF+EkM33vD99rK4
4p/U6WUwCwYDVR0PBAQDAgeAMBMGA1UdJQQMMAoGCCsGAQUFBwMEMAoGCCqGSM49
BAMCA0gAMEUCICCHh6YzYSNVW6knq0bttdU0W+xkMtbL8BcJRV2zd6shAiEArdWE
3ug6jCqMODevE3ezaiBw4hvV/XmWh/ix7DM26i0=
-----END CERTIFICATE-----
